target datalayout = "e-m:e-p270:32:32-p271:32:32-p272:64:64-i64:64-i128:128-f80:128-n8:16:32:64-S128"
target triple = "x86_64-pc-linux-gnu"

%union.pthread_mutex_t = type { %struct.__pthread_mutex_s }
%struct.__pthread_mutex_s = type { i32, i32, i32, i32, i32, i16, i16, %struct.__pthread_internal_list }
%struct.__pthread_internal_list = type { ptr, ptr }
%struct.Wla_Man_t_ = type { ptr, ptr, ptr, ptr, ptr, ptr, ptr, ptr, ptr, ptr, i32, i32, i32, i32, i32, i32, i64, i64, i64 }

@g_nRunIds = internal global i32 0, align 4
@g_mutex = external global %union.pthread_mutex_t, align 8

; Function Attrs: nounwind uwtable
define void @Wla_ManJoinThread(ptr noundef %0, i32 noundef %1) #0 {
  %3 = alloca ptr, align 8
  %4 = alloca i32, align 4
  %5 = alloca i32, align 4
  store ptr %0, ptr %3, align 8
  store i32 %1, ptr %4, align 4
  %6 = load i32, ptr %4, align 4
  %7 = load volatile i32, ptr @g_nRunIds, align 4
  %8 = icmp eq i32 %6, %7
  br i1 %8, label %9, label %14

9:                                                ; preds = %2
  %10 = call i32 @pthread_mutex_lock(ptr noundef @g_mutex) #8
  store i32 %10, ptr %5, align 4
  %11 = load volatile i32, ptr @g_nRunIds, align 4
  %12 = add nsw i32 %11, 1
  store volatile i32 %12, ptr @g_nRunIds, align 4
  %13 = call i32 @pthread_mutex_unlock(ptr noundef @g_mutex) #8
  store i32 %13, ptr %5, align 4
  br label %14

14:                                               ; preds = %9, %2
  %15 = load ptr, ptr %3, align 8
  %16 = getelementptr inbounds %struct.Wla_Man_t_, ptr %15, i32 0, i32 9
  %17 = load ptr, ptr %16, align 8
  %18 = load i64, ptr %17, align 8
  %19 = call i32 @pthread_join(i64 noundef %18, ptr noundef null)
  store i32 %19, ptr %5, align 4
  %20 = load ptr, ptr %3, align 8
  %21 = getelementptr inbounds %struct.Wla_Man_t_, ptr %20, i32 0, i32 9
  %22 = load ptr, ptr %21, align 8
  %23 = icmp ne ptr %22, null
  br i1 %23, label %24, label %30

24:                                               ; preds = %14
  %25 = load ptr, ptr %3, align 8
  %26 = getelementptr inbounds %struct.Wla_Man_t_, ptr %25, i32 0, i32 9
  %27 = load ptr, ptr %26, align 8
  call void @free(ptr noundef %27) #8
  %28 = load ptr, ptr %3, align 8
  %29 = getelementptr inbounds %struct.Wla_Man_t_, ptr %28, i32 0, i32 9
  store ptr null, ptr %29, align 8
  br label %31

30:                                               ; preds = %14
  br label %31

31:                                               ; preds = %30, %24
  %32 = load ptr, ptr %3, align 8
  %33 = getelementptr inbounds %struct.Wla_Man_t_, ptr %32, i32 0, i32 9
  store ptr null, ptr %33, align 8
  ret void
}