; Function Attrs: nounwind uwtable
define void @Wla_ManJoinThread(ptr noundef captures(none) %0, i32 noundef %1) local_unnamed_addr #1 {
  %3 = load volatile i32, ptr @g_nRunIds, align 4
  %4 = icmp eq i32 %1, %3
  br i1 %4, label %5, label %10

5:                                                ; preds = %2
  %6 = tail call i32 @pthread_mutex_lock(ptr noundef nonnull @g_mutex) #11
  %7 = load volatile i32, ptr @g_nRunIds, align 4
  %8 = add nsw i32 %7, 1
  store volatile i32 %8, ptr @g_nRunIds, align 4
  %9 = tail call i32 @pthread_mutex_unlock(ptr noundef nonnull @g_mutex) #11
  br label %10

10:                                               ; preds = %5, %2
  %11 = getelementptr inbounds nuw i8, ptr %0, i64 72
  %12 = load ptr, ptr %11, align 8
  %13 = load i64, ptr %12, align 8
  %14 = tail call i32 @pthread_join(i64 noundef %13, ptr noundef null) #11
  %15 = load ptr, ptr %11, align 8
  %.not = icmp eq ptr %15, null
  br i1 %.not, label %17, label %16

16:                                               ; preds = %10
  tail call void @free(ptr noundef nonnull %15) #11
  br label %17

17:                                               ; preds = %10, %16
  store ptr null, ptr %11, align 8
  ret void
}